target datalayout = "e-m:e-p270:32:32-p271:32:32-p272:64:64-i64:64-i128:128-f80:128-n8:16:32:64-S128"
target triple = "x86_64-unknown-linux-gnu"

%"class.cvc5::internal::Result" = type { i32, i32, %"class.std::__cxx11::basic_string" }
%"class.std::__cxx11::basic_string" = type { %"struct.std::__cxx11::basic_string<char>::_Alloc_hider", i64, %union.anon }
%"struct.std::__cxx11::basic_string<char>::_Alloc_hider" = type { ptr }
%union.anon = type { i64, [8 x i8] }

@.str.10 = private unnamed_addr constant [8 x i8] c"unknown\00", align 1

; Function Attrs: mustprogress nounwind uwtable
define linkonce_odr hidden noundef zeroext i1 @_ZN4cvc58internal8language10isLangSmt2ENS0_8LanguageE(i32 noundef %lang) #5 comdat {
entry:
  %lang.addr = alloca i32, align 4
  store i32 %lang, ptr %lang.addr, align 4
  %0 = load i32, ptr %lang.addr, align 4
  %cmp = icmp eq i32 %0, 0
  ret i1 %cmp
}

; Function Attrs: mustprogress uwtable
define hidden void @_ZNK4cvc58internal6Result12toStreamSmt2ERSo(ptr noundef nonnull align 8 dereferenceable(40) %this, ptr noundef nonnull align 8 dereferenceable(8) %out) #4 align 2 {
entry:
  %this.addr = alloca ptr, align 8
  %out.addr = alloca ptr, align 8
  store ptr %this, ptr %this.addr, align 8
  store ptr %out, ptr %out.addr, align 8
  %this1 = load ptr, ptr %this.addr, align 8
  %d_status = getelementptr inbounds %"class.cvc5::internal::Result", ptr %this1, i32 0, i32 0
  %0 = load i32, ptr %d_status, align 8
  %cmp = icmp eq i32 %0, 3
  br i1 %cmp, label %if.then, label %if.end

if.then:                                          ; preds = %entry
  %1 = load ptr, ptr %out.addr, align 8
  %call = call noundef nonnull align 8 dereferenceable(8) ptr @_ZStlsISt11char_traitsIcEERSt13basic_ostreamIcT_ES5_PKc(ptr noundef nonnull align 8 dereferenceable(8) %1, ptr noundef @.str.10)
  br label %return

if.end:                                           ; preds = %entry
  %2 = load ptr, ptr %out.addr, align 8
  call void @_ZNK4cvc58internal6Result15toStreamDefaultERSo(ptr noundef nonnull align 8 dereferenceable(40) %this1, ptr noundef nonnull align 8 dereferenceable(8) %2)
  br label %return

return:                                           ; preds = %if.end, %if.then
  ret void
}

; Function Attrs: mustprogress uwtable
define hidden noundef nonnull align 8 dereferenceable(8) ptr @_ZN4cvc58internallsERSoRKNS0_6ResultE(ptr noundef nonnull align 8 dereferenceable(8) %out, ptr noundef nonnull align 8 dereferenceable(40) %r) #4 {
entry:
  %out.addr = alloca ptr, align 8
  %r.addr = alloca ptr, align 8
  %language = alloca i32, align 4
  store ptr %out, ptr %out.addr, align 8
  store ptr %r, ptr %r.addr, align 8
  %0 = load ptr, ptr %out.addr, align 8
  %vtable = load ptr, ptr %0, align 8
  %vbase.offset.ptr = getelementptr i8, ptr %vtable, i64 -24
  %vbase.offset = load i64, ptr %vbase.offset.ptr, align 8
  %add.ptr = getelementptr inbounds i8, ptr %0, i64 %vbase.offset
  %call = call noundef i32 @_ZN4cvc58internal7options7ioutils17getOutputLanguageERSt8ios_base(ptr noundef nonnull align 8 dereferenceable(216) %add.ptr)
  store i32 %call, ptr %language, align 4
  %1 = load i32, ptr %language, align 4
  switch i32 %1, label %sw.default [
    i32 1, label %sw.bb
  ]

sw.bb:                                            ; preds = %entry
  %2 = load ptr, ptr %r.addr, align 8
  %3 = load ptr, ptr %out.addr, align 8
  call void @_ZNK4cvc58internal6Result12toStreamSmt2ERSo(ptr noundef nonnull align 8 dereferenceable(40) %2, ptr noundef nonnull align 8 dereferenceable(8) %3)
  br label %sw.epilog

sw.default:                                       ; preds = %entry
  %4 = load i32, ptr %language, align 4
  %call1 = call noundef zeroext i1 @_ZN4cvc58internal8language10isLangSmt2ENS0_8LanguageE(i32 noundef %4)
  br i1 %call1, label %if.then, label %if.else

if.then:                                          ; preds = %sw.default
  %5 = load ptr, ptr %r.addr, align 8
  %6 = load ptr, ptr %out.addr, align 8
  call void @_ZNK4cvc58internal6Result12toStreamSmt2ERSo(ptr noundef nonnull align 8 dereferenceable(40) %5, ptr noundef nonnull align 8 dereferenceable(8) %6)
  br label %if.end

if.else:                                          ; preds = %sw.default
  %7 = load ptr, ptr %r.addr, align 8
  %8 = load ptr, ptr %out.addr, align 8
  call void @_ZNK4cvc58internal6Result15toStreamDefaultERSo(ptr noundef nonnull align 8 dereferenceable(40) %7, ptr noundef nonnull align 8 dereferenceable(8) %8)
  br label %if.end

if.end:                                           ; preds = %if.else, %if.then
  br label %sw.epilog

sw.epilog:                                        ; preds = %if.end, %sw.bb
  %9 = load ptr, ptr %out.addr, align 8
  ret ptr %9
}