; Function Attrs: mustprogress uwtable
define hidden noundef nonnull align 8 dereferenceable(8) ptr @_ZN4cvc58internallsERSoRKNS0_6ResultE(ptr noundef nonnull returned align 8 dereferenceable(8) %out, ptr nocapture noundef nonnull readonly align 8 dereferenceable(40) %r) local_unnamed_addr #3 {
entry:
  %vtable = load ptr, ptr %out, align 8
  %vbase.offset.ptr = getelementptr i8, ptr %vtable, i64 -24
  %vbase.offset = load i64, ptr %vbase.offset.ptr, align 8
  %add.ptr = getelementptr inbounds i8, ptr %out, i64 %vbase.offset
  %call = tail call noundef i32 @_ZN4cvc58internal7options7ioutils17getOutputLanguageERSt8ios_base(ptr noundef nonnull align 8 dereferenceable(216) %add.ptr)
  switch i32 %call, label %if.else [
    i32 1, label %sw.bb
    i32 0, label %if.then
  ]

sw.bb:                                            ; preds = %entry
  %0 = load i32, ptr %r, align 8
  %cmp.i = icmp eq i32 %0, 3
  br i1 %cmp.i, label %if.then.i, label %if.end.i

if.then.i:                                        ; preds = %sw.bb
  %call.i = tail call noundef nonnull align 8 dereferenceable(8) ptr @_ZStlsISt11char_traitsIcEERSt13basic_ostreamIcT_ES5_PKc(ptr noundef nonnull align 8 dereferenceable(8) %out, ptr noundef nonnull @.str.10)
  br label %sw.epilog

if.end.i:                                         ; preds = %sw.bb
  tail call void @_ZNK4cvc58internal6Result15toStreamDefaultERSo(ptr noundef nonnull align 8 dereferenceable(40) %r, ptr noundef nonnull align 8 dereferenceable(8) %out)
  br label %sw.epilog

if.then:                                          ; preds = %entry
  %1 = load i32, ptr %r, align 8
  %cmp.i9 = icmp eq i32 %1, 3
  br i1 %cmp.i9, label %if.then.i11, label %if.end.i10

if.then.i11:                                      ; preds = %if.then
  %call.i12 = tail call noundef nonnull align 8 dereferenceable(8) ptr @_ZStlsISt11char_traitsIcEERSt13basic_ostreamIcT_ES5_PKc(ptr noundef nonnull align 8 dereferenceable(8) %out, ptr noundef nonnull @.str.10)
  br label %sw.epilog

if.end.i10:                                       ; preds = %if.then
  tail call void @_ZNK4cvc58internal6Result15toStreamDefaultERSo(ptr noundef nonnull align 8 dereferenceable(40) %r, ptr noundef nonnull align 8 dereferenceable(8) %out)
  br label %sw.epilog

if.else:                                          ; preds = %entry
  tail call void @_ZNK4cvc58internal6Result15toStreamDefaultERSo(ptr noundef nonnull align 8 dereferenceable(40) %r, ptr noundef nonnull align 8 dereferenceable(8) %out)
  br label %sw.epilog

sw.epilog:                                        ; preds = %if.end.i10, %if.then.i11, %if.end.i, %if.then.i, %if.else
  ret ptr %out
}